target datalayout = "e-m:e-p270:32:32-p271:32:32-p272:64:64-i64:64-i128:128-f80:128-n8:16:32:64-S128"
target triple = "x86_64-pc-linux-gnu"

%union.SourceSpan = type { i64 }
%union.anon.2 = type { ptr }
%union.anon.3 = type { i16 }
%union.anon.4 = type { %struct.FuncDecl }
%struct.FuncDecl = type { i32, [4 x i8], %struct.Signature_, i32, i32, %union.anon.11 }
%struct.Signature_ = type <{ %struct.CalleeAttributes, i16, i8, i32, i32, [4 x i8], ptr }>
%struct.CalleeAttributes = type { i8 }
%union.anon.11 = type { %struct.anon.12 }
%struct.anon.12 = type { i16, %union.anon.13 }
%union.anon.13 = type { ptr }
%struct.Decl_ = type { ptr, ptr, %union.SourceSpan, i64, %union.anon.2, i32, %union.anon.3, i64, ptr, ptr, ptr, %union.anon.4 }

; Function Attrs: nounwind uwtable
define dso_local zeroext i1 @decl_is_externally_visible(ptr noundef %0) #0 {
  %2 = alloca ptr, align 8
  store ptr %0, ptr %2, align 8
  %3 = load ptr, ptr %2, align 8
  %4 = getelementptr inbounds %struct.Decl_, ptr %3, i32 0, i32 3
  %5 = load i64, ptr %4, align 8
  %6 = lshr i64 %5, 20
  %7 = and i64 %6, 1
  %8 = trunc i64 %7 to i1
  br i1 %8, label %24, label %9

9:                                                ; preds = %1
  %10 = load ptr, ptr %2, align 8
  %11 = getelementptr inbounds %struct.Decl_, ptr %10, i32 0, i32 3
  %12 = load i64, ptr %11, align 8
  %13 = lshr i64 %12, 10
  %14 = and i64 %13, 7
  %15 = trunc i64 %14 to i32
  %16 = icmp eq i32 %15, 0
  br i1 %16, label %24, label %17

17:                                               ; preds = %9
  %18 = load ptr, ptr %2, align 8
  %19 = getelementptr inbounds %struct.Decl_, ptr %18, i32 0, i32 3
  %20 = load i64, ptr %19, align 8
  %21 = lshr i64 %20, 28
  %22 = and i64 %21, 1
  %23 = trunc i64 %22 to i1
  br label %24

24:                                               ; preds = %17, %9, %1
  %25 = phi i1 [ true, %9 ], [ true, %1 ], [ %23, %17 ]
  ret i1 %25
}