; Function Attrs: mustprogress nofree norecurse nosync nounwind willreturn memory(argmem: read) uwtable
define dso_local zeroext i1 @decl_is_externally_visible(ptr nocapture noundef readonly %0) local_unnamed_addr #1 {
  %2 = getelementptr inbounds i8, ptr %0, i64 24
  %3 = load i64, ptr %2, align 8
  %4 = and i64 %3, 1048576
  %.not = icmp ne i64 %4, 0
  %5 = and i64 %3, 7168
  %6 = icmp eq i64 %5, 0
  %or.cond = or i1 %.not, %6
  br i1 %or.cond, label %10, label %7

7:                                                ; preds = %1
  %8 = and i64 %3, 268435456
  %9 = icmp ne i64 %8, 0
  br label %10

10:                                               ; preds = %7, %1
  %11 = phi i1 [ true, %1 ], [ %9, %7 ]
  ret i1 %11
}